; Function Attrs: mustprogress noreturn uwtable
define dso_local void @_ZN4absl13base_internal18ThrowStdLogicErrorEPKc(ptr noundef %what_arg) local_unnamed_addr #0 personality ptr @__gxx_personality_v0 {
entry:
  %exception = tail call ptr @__cxa_allocate_exception(i64 16) #3
  invoke void @_ZNSt11logic_errorC1EPKc(ptr noundef nonnull align 8 dereferenceable(16) %exception, ptr noundef %what_arg)
          to label %invoke.cont unwind label %lpad

invoke.cont:                                      ; preds = %entry
  tail call void @__cxa_throw(ptr nonnull %exception, ptr nonnull @_ZTISt11logic_error, ptr nonnull @_ZNSt11logic_errorD1Ev) #4
  unreachable

lpad:                                             ; preds = %entry
  %0 = landingpad { ptr, i32 }
          cleanup
  tail call void @__cxa_free_exception(ptr %exception) #3
  resume { ptr, i32 } %0
}